; ModuleID = 'source-C-CXX/55/1231.c'
source_filename = "source-C-CXX/55/1231.c"
target datalayout = "e-m:e-p270:32:32-p271:32:32-p272:64:64-i64:64-f80:128-n8:16:32:64-S128"
target triple = "x86_64-pc-linux-gnu"

@.str = private unnamed_addr constant [3 x i8] c"%d\00", align 1
@.str.1 = private unnamed_addr constant [4 x i8] c"%d\0A\00", align 1

; Function Attrs: nofree nounwind sspstrong uwtable
define dso_local i32 @main() local_unnamed_addr #0 {
  %1 = alloca i32, align 4
  %2 = bitcast i32* %1 to i8*
  call void @llvm.lifetime.start.p0i8(i64 4, i8* nonnull %2) #3
  %3 = call i32 (i8*, ...) @__isoc99_scanf(i8* getelementptr inbounds ([3 x i8], [3 x i8]* @.str, i64 0, i64 0), i32* nonnull %1)
  %4 = load i32, i32* %1, align 4, !tbaa !5
  %5 = srem i32 %4, 10
  %6 = sdiv i32 %4, 10
  %7 = icmp eq i32 %5, 0
  br i1 %7, label %33, label %8

8:                                                ; preds = %0
  store i32 %6, i32* %1, align 4, !tbaa !5
  %9 = srem i32 %6, 10
  %10 = icmp eq i32 %9, 0
  br i1 %10, label %33, label %11

11:                                               ; preds = %8
  %12 = mul nsw i32 %5, 10
  %13 = add nsw i32 %9, %12
  %14 = sdiv i32 %4, 100
  store i32 %14, i32* %1, align 4, !tbaa !5
  %15 = srem i32 %14, 10
  %16 = icmp eq i32 %15, 0
  br i1 %16, label %33, label %17

17:                                               ; preds = %11
  %18 = mul nsw i32 %13, 10
  %19 = add nsw i32 %15, %18
  %20 = sdiv i32 %4, 1000
  store i32 %20, i32* %1, align 4, !tbaa !5
  %21 = srem i32 %20, 10
  %22 = icmp eq i32 %21, 0
  br i1 %22, label %33, label %23

23:                                               ; preds = %17
  %24 = mul nsw i32 %19, 10
  %25 = add nsw i32 %21, %24
  %26 = sdiv i32 %4, 10000
  store i32 %26, i32* %1, align 4, !tbaa !5
  %27 = srem i32 %26, 10
  %28 = icmp eq i32 %27, 0
  br i1 %28, label %33, label %29

29:                                               ; preds = %23
  %30 = mul nsw i32 %25, 10
  %31 = add nsw i32 %27, %30
  %32 = sdiv i32 %4, 100000
  store i32 %32, i32* %1, align 4, !tbaa !5
  br label %33

33:                                               ; preds = %0, %8, %11, %17, %29, %23
  %34 = phi i32 [ %31, %29 ], [ %25, %23 ], [ %19, %17 ], [ %13, %11 ], [ %5, %8 ], [ 0, %0 ]
  %35 = call i32 (i8*, ...) @printf(i8* nonnull dereferenceable(1) getelementptr inbounds ([4 x i8], [4 x i8]* @.str.1, i64 0, i64 0), i32 %34)
  call void @llvm.lifetime.end.p0i8(i64 4, i8* nonnull %2) #3
  ret i32 0
}

; Function Attrs: argmemonly mustprogress nofree nosync nounwind willreturn
declare void @llvm.lifetime.start.p0i8(i64 immarg, i8* nocapture) #1

; Function Attrs: nofree nounwind
declare noundef i32 @__isoc99_scanf(i8* nocapture noundef readonly, ...) local_unnamed_addr #2

; Function Attrs: nofree nounwind
declare noundef i32 @printf(i8* nocapture noundef readonly, ...) local_unnamed_addr #2

; Function Attrs: argmemonly mustprogress nofree nosync nounwind willreturn
declare void @llvm.lifetime.end.p0i8(i64 immarg, i8* nocapture) #1


!llvm.module.flags = !{!0, !1, !2, !3}
!llvm.ident = !{!4}

!0 = !{i32 1, !"wchar_size", i32 4}
!1 = !{i32 7, !"PIC Level", i32 2}
!2 = !{i32 7, !"PIE Level", i32 2}
!3 = !{i32 7, !"uwtable", i32 1}
!4 = !{!"clang version 13.0.0"}
!5 = !{!6, !6, i64 0}
!6 = !{!"int", !7, i64 0}
!7 = !{!"omnipotent char", !8, i64 0}
!8 = !{!"Simple C/C++ TBAA"}
